target datalayout = "e-m:e-p270:32:32-p271:32:32-p272:64:64-i64:64-i128:128-f80:128-n8:16:32:64-S128"
target triple = "x86_64-unknown-linux-gnu"

%"class.google::protobuf::FileDescriptorProto" = type { %"class.google::protobuf::Message", %union.anon }
%"class.google::protobuf::Message" = type { %"class.google::protobuf::MessageLite" }
%"class.google::protobuf::MessageLite" = type { ptr, %"class.google::protobuf::internal::InternalMetadata" }
%"class.google::protobuf::internal::InternalMetadata" = type { i64 }
%union.anon = type { %"struct.google::protobuf::FileDescriptorProto::Impl_" }
%"struct.google::protobuf::FileDescriptorProto::Impl_" = type <{ %"class.google::protobuf::internal::HasBits", %"class.google::protobuf::internal::CachedSize", %"class.google::protobuf::RepeatedPtrField", %"class.google::protobuf::RepeatedPtrField.20", %"class.google::protobuf::RepeatedPtrField.21", %"class.google::protobuf::RepeatedPtrField.22", %"class.google::protobuf::RepeatedPtrField.23", %"class.google::protobuf::RepeatedField", %"class.google::protobuf::RepeatedField", %"struct.google::protobuf::internal::ArenaStringPtr", %"struct.google::protobuf::internal::ArenaStringPtr", %"struct.google::protobuf::internal::ArenaStringPtr", ptr, ptr, i32, [4 x i8] }>
%"class.google::protobuf::internal::HasBits" = type { [1 x i32] }
%"class.google::protobuf::internal::CachedSize" = type { i32 }
%"class.google::protobuf::RepeatedPtrField" = type { %"class.google::protobuf::internal::RepeatedPtrFieldBase" }
%"class.google::protobuf::internal::RepeatedPtrFieldBase" = type { ptr, i32, i32, ptr }
%"class.google::protobuf::RepeatedPtrField.20" = type { %"class.google::protobuf::internal::RepeatedPtrFieldBase" }
%"class.google::protobuf::RepeatedPtrField.21" = type { %"class.google::protobuf::internal::RepeatedPtrFieldBase" }
%"class.google::protobuf::RepeatedPtrField.22" = type { %"class.google::protobuf::internal::RepeatedPtrFieldBase" }
%"class.google::protobuf::RepeatedPtrField.23" = type { %"class.google::protobuf::internal::RepeatedPtrFieldBase" }
%"class.google::protobuf::RepeatedField" = type { i32, i32, ptr }
%"struct.google::protobuf::internal::ArenaStringPtr" = type { %"class.google::protobuf::internal::TaggedStringPtr" }
%"class.google::protobuf::internal::TaggedStringPtr" = type { ptr }
%"class.google::protobuf::DescriptorDatabase" = type { ptr }
%"class.google::protobuf::MergedDescriptorDatabase" = type { %"class.google::protobuf::DescriptorDatabase", %"class.std::vector.166" }
%"class.std::vector.166" = type { %"struct.std::_Vector_base.167" }
%"struct.std::_Vector_base.167" = type { %"struct.std::_Vector_base<google::protobuf::DescriptorDatabase *, std::allocator<google::protobuf::DescriptorDatabase *>>::_Vector_impl" }
%"struct.std::_Vector_base<google::protobuf::DescriptorDatabase *, std::allocator<google::protobuf::DescriptorDatabase *>>::_Vector_impl" = type { %"struct.std::_Vector_base<google::protobuf::DescriptorDatabase *, std::allocator<google::protobuf::DescriptorDatabase *>>::_Vector_impl_data" }
%"struct.std::_Vector_base<google::protobuf::DescriptorDatabase *, std::allocator<google::protobuf::DescriptorDatabase *>>::_Vector_impl_data" = type { ptr, ptr, ptr }

; Function Attrs: mustprogress nounwind uwtable
define linkonce_odr hidden noundef i64 @_ZNK6google8protobuf8internal15TaggedStringPtr6as_intEv(ptr noundef nonnull align 8 dereferenceable(8) %this) #4 comdat align 2 {
entry:
  %this.addr = alloca ptr, align 8
  store ptr %this, ptr %this.addr, align 8
  %this1 = load ptr, ptr %this.addr, align 8
  %ptr_ = getelementptr inbounds %"class.google::protobuf::internal::TaggedStringPtr", ptr %this1, i32 0, i32 0
  %0 = load ptr, ptr %ptr_, align 8
  %1 = ptrtoint ptr %0 to i64
  ret i64 %1
}

; Function Attrs: mustprogress uwtable
define linkonce_odr hidden noundef ptr @_ZNK6google8protobuf8internal15TaggedStringPtr3GetB5cxx11Ev(ptr noundef nonnull align 8 dereferenceable(8) %this) #6 comdat align 2 {
entry:
  %this.addr = alloca ptr, align 8
  store ptr %this, ptr %this.addr, align 8
  %this1 = load ptr, ptr %this.addr, align 8
  %call = call noundef i64 @_ZNK6google8protobuf8internal15TaggedStringPtr6as_intEv(ptr noundef nonnull align 8 dereferenceable(8) %this1)
  %and = and i64 %call, -4
  %0 = inttoptr i64 %and to ptr
  ret ptr %0
}

; Function Attrs: mustprogress uwtable
define linkonce_odr hidden noundef nonnull align 8 dereferenceable(32) ptr @_ZNK6google8protobuf19FileDescriptorProto14_internal_nameB5cxx11Ev(ptr noundef nonnull align 8 dereferenceable(224) %this) #6 comdat align 2 {
entry:
  %this.addr.i = alloca ptr, align 8
  %this.addr = alloca ptr, align 8
  store ptr %this, ptr %this.addr, align 8
  %this1 = load ptr, ptr %this.addr, align 8
  %0 = getelementptr inbounds %"class.google::protobuf::FileDescriptorProto", ptr %this1, i32 0, i32 1
  %name_ = getelementptr inbounds %"struct.google::protobuf::FileDescriptorProto::Impl_", ptr %0, i32 0, i32 9
  store ptr %name_, ptr %this.addr.i, align 8
  %this1.i = load ptr, ptr %this.addr.i, align 8
  %call.i = call noundef nonnull align 8 dereferenceable(32) ptr @_ZNK6google8protobuf8internal15TaggedStringPtr3GetB5cxx11Ev(ptr noundef nonnull align 8 dereferenceable(8) %this1.i)
  ret ptr %call.i
}

; Function Attrs: mustprogress uwtable
define linkonce_odr hidden noundef nonnull align 8 dereferenceable(32) ptr @_ZNK6google8protobuf19FileDescriptorProto4nameB5cxx11Ev(ptr noundef nonnull align 8 dereferenceable(224) %this) #6 comdat align 2 {
entry:
  %this.addr = alloca ptr, align 8
  store ptr %this, ptr %this.addr, align 8
  %this1 = load ptr, ptr %this.addr, align 8
  %call = call noundef nonnull align 8 dereferenceable(32) ptr @_ZNK6google8protobuf19FileDescriptorProto14_internal_nameB5cxx11Ev(ptr noundef nonnull align 8 dereferenceable(224) %this1)
  ret ptr %call
}

; Function Attrs: mustprogress uwtable
define linkonce_odr hidden void @_ZN6google8protobuf19FileDescriptorProtoC2Ev(ptr noundef nonnull align 8 dereferenceable(224) %this) unnamed_addr #6 comdat align 2 {
entry:
  %this.addr = alloca ptr, align 8
  store ptr %this, ptr %this.addr, align 8
  %this1 = load ptr, ptr %this.addr, align 8
  call void @_ZN6google8protobuf19FileDescriptorProtoC2EPNS0_5ArenaE(ptr noundef nonnull align 8 dereferenceable(224) %this1, ptr noundef null)
  ret void
}

; Function Attrs: mustprogress nounwind uwtable
define linkonce_odr hidden noundef nonnull align 8 dereferenceable(8) ptr @_ZNSt6vectorIPN6google8protobuf18DescriptorDatabaseESaIS3_EEixEm(ptr noundef nonnull align 8 dereferenceable(24) %this, i64 noundef %__n) #4 comdat align 2 {
entry:
  %this.addr = alloca ptr, align 8
  %__n.addr = alloca i64, align 8
  store ptr %this, ptr %this.addr, align 8
  store i64 %__n, ptr %__n.addr, align 8
  %this1 = load ptr, ptr %this.addr, align 8
  %_M_impl = getelementptr inbounds %"struct.std::_Vector_base.167", ptr %this1, i32 0, i32 0
  %_M_start = getelementptr inbounds %"struct.std::_Vector_base<google::protobuf::DescriptorDatabase *, std::allocator<google::protobuf::DescriptorDatabase *>>::_Vector_impl_data", ptr %_M_impl, i32 0, i32 0
  %0 = load ptr, ptr %_M_start, align 8
  %1 = load i64, ptr %__n.addr, align 8
  %add.ptr = getelementptr inbounds ptr, ptr %0, i64 %1
  ret ptr %add.ptr
}

; Function Attrs: mustprogress nounwind uwtable
define linkonce_odr hidden noundef i64 @_ZNKSt6vectorIPN6google8protobuf18DescriptorDatabaseESaIS3_EE4sizeEv(ptr noundef nonnull align 8 dereferenceable(24) %this) #4 comdat align 2 {
entry:
  %this.addr = alloca ptr, align 8
  store ptr %this, ptr %this.addr, align 8
  %this1 = load ptr, ptr %this.addr, align 8
  %_M_impl = getelementptr inbounds %"struct.std::_Vector_base.167", ptr %this1, i32 0, i32 0
  %_M_finish = getelementptr inbounds %"struct.std::_Vector_base<google::protobuf::DescriptorDatabase *, std::allocator<google::protobuf::DescriptorDatabase *>>::_Vector_impl_data", ptr %_M_impl, i32 0, i32 1
  %0 = load ptr, ptr %_M_finish, align 8
  %_M_impl2 = getelementptr inbounds %"struct.std::_Vector_base.167", ptr %this1, i32 0, i32 0
  %_M_start = getelementptr inbounds %"struct.std::_Vector_base<google::protobuf::DescriptorDatabase *, std::allocator<google::protobuf::DescriptorDatabase *>>::_Vector_impl_data", ptr %_M_impl2, i32 0, i32 0
  %1 = load ptr, ptr %_M_start, align 8
  %sub.ptr.lhs.cast = ptrtoint ptr %0 to i64
  %sub.ptr.rhs.cast = ptrtoint ptr %1 to i64
  %sub.ptr.sub = sub i64 %sub.ptr.lhs.cast, %sub.ptr.rhs.cast
  %sub.ptr.div = sdiv exact i64 %sub.ptr.sub, 8
  ret i64 %sub.ptr.div
}

; Function Attrs: mustprogress uwtable
define noundef zeroext i1 @_ZN6google8protobuf24MergedDescriptorDatabase27FindFileContainingExtensionERKNSt7__cxx1112basic_stringIcSt11char_traitsIcESaIcEEEiPNS0_19FileDescriptorProtoE(ptr noundef nonnull align 8 dereferenceable(32) %this, ptr noundef nonnull align 8 dereferenceable(32) %containing_type, i32 noundef %field_number, ptr noundef %output) unnamed_addr #6 align 2 personality ptr @__gxx_personality_v0 {
entry:
  %retval = alloca i1, align 1
  %this.addr = alloca ptr, align 8
  %containing_type.addr = alloca ptr, align 8
  %field_number.addr = alloca i32, align 4
  %output.addr = alloca ptr, align 8
  %i = alloca i64, align 8
  %temp = alloca %"class.google::protobuf::FileDescriptorProto", align 8
  %j = alloca i64, align 8
  %exn.slot = alloca ptr, align 8
  %ehselector.slot = alloca i32, align 4
  %cleanup.dest.slot = alloca i32, align 4
  store ptr %this, ptr %this.addr, align 8
  store ptr %containing_type, ptr %containing_type.addr, align 8
  store i32 %field_number, ptr %field_number.addr, align 4
  store ptr %output, ptr %output.addr, align 8
  %this1 = load ptr, ptr %this.addr, align 8
  store i64 0, ptr %i, align 8
  br label %for.cond

for.cond:                                         ; preds = %for.inc17, %entry
  %0 = load i64, ptr %i, align 8
  %sources_ = getelementptr inbounds %"class.google::protobuf::MergedDescriptorDatabase", ptr %this1, i32 0, i32 1
  %call = call noundef i64 @_ZNKSt6vectorIPN6google8protobuf18DescriptorDatabaseESaIS3_EE4sizeEv(ptr noundef nonnull align 8 dereferenceable(24) %sources_) #3
  %cmp = icmp ult i64 %0, %call
  br i1 %cmp, label %for.body, label %for.end19

for.body:                                         ; preds = %for.cond
  %sources_2 = getelementptr inbounds %"class.google::protobuf::MergedDescriptorDatabase", ptr %this1, i32 0, i32 1
  %1 = load i64, ptr %i, align 8
  %call3 = call noundef nonnull align 8 dereferenceable(8) ptr @_ZNSt6vectorIPN6google8protobuf18DescriptorDatabaseESaIS3_EEixEm(ptr noundef nonnull align 8 dereferenceable(24) %sources_2, i64 noundef %1) #3
  %2 = load ptr, ptr %call3, align 8
  %3 = load ptr, ptr %containing_type.addr, align 8
  %4 = load i32, ptr %field_number.addr, align 4
  %5 = load ptr, ptr %output.addr, align 8
  %vtable = load ptr, ptr %2, align 8
  %vfn = getelementptr inbounds ptr, ptr %vtable, i64 4
  %6 = load ptr, ptr %vfn, align 8
  %call4 = call noundef zeroext i1 %6(ptr noundef nonnull align 8 dereferenceable(8) %2, ptr noundef nonnull align 8 dereferenceable(32) %3, i32 noundef %4, ptr noundef %5)
  br i1 %call4, label %if.then, label %if.end16

if.then:                                          ; preds = %for.body
  call void @_ZN6google8protobuf19FileDescriptorProtoC2Ev(ptr noundef nonnull align 8 dereferenceable(224) %temp)
  store i64 0, ptr %j, align 8
  br label %for.cond5

for.cond5:                                        ; preds = %for.inc, %if.then
  %7 = load i64, ptr %j, align 8
  %8 = load i64, ptr %i, align 8
  %cmp6 = icmp ult i64 %7, %8
  br i1 %cmp6, label %for.body7, label %for.end

for.body7:                                        ; preds = %for.cond5
  %sources_8 = getelementptr inbounds %"class.google::protobuf::MergedDescriptorDatabase", ptr %this1, i32 0, i32 1
  %9 = load i64, ptr %j, align 8
  %call9 = call noundef nonnull align 8 dereferenceable(8) ptr @_ZNSt6vectorIPN6google8protobuf18DescriptorDatabaseESaIS3_EEixEm(ptr noundef nonnull align 8 dereferenceable(24) %sources_8, i64 noundef %9) #3
  %10 = load ptr, ptr %call9, align 8
  %11 = load ptr, ptr %output.addr, align 8
  %call10 = invoke noundef nonnull align 8 dereferenceable(32) ptr @_ZNK6google8protobuf19FileDescriptorProto4nameB5cxx11Ev(ptr noundef nonnull align 8 dereferenceable(224) %11)
          to label %invoke.cont unwind label %lpad

invoke.cont:                                      ; preds = %for.body7
  %vtable11 = load ptr, ptr %10, align 8
  %vfn12 = getelementptr inbounds ptr, ptr %vtable11, i64 2
  %12 = load ptr, ptr %vfn12, align 8
  %call14 = invoke noundef zeroext i1 %12(ptr noundef nonnull align 8 dereferenceable(8) %10, ptr noundef nonnull align 8 dereferenceable(32) %call10, ptr noundef %temp)
          to label %invoke.cont13 unwind label %lpad

invoke.cont13:                                    ; preds = %invoke.cont
  br i1 %call14, label %if.then15, label %if.end

if.then15:                                        ; preds = %invoke.cont13
  store i1 false, ptr %retval, align 1
  store i32 1, ptr %cleanup.dest.slot, align 4
  br label %cleanup

lpad:                                             ; preds = %invoke.cont, %for.body7
  %13 = landingpad { ptr, i32 }
          cleanup
  %14 = extractvalue { ptr, i32 } %13, 0
  store ptr %14, ptr %exn.slot, align 8
  %15 = extractvalue { ptr, i32 } %13, 1
  store i32 %15, ptr %ehselector.slot, align 4
  call void @_ZN6google8protobuf19FileDescriptorProtoD1Ev(ptr noundef nonnull align 8 dereferenceable(224) %temp) #3
  br label %eh.resume

if.end:                                           ; preds = %invoke.cont13
  br label %for.inc

for.inc:                                          ; preds = %if.end
  %16 = load i64, ptr %j, align 8
  %inc = add i64 %16, 1
  store i64 %inc, ptr %j, align 8
  br label %for.cond5, !llvm.loop !13

for.end:                                          ; preds = %for.cond5
  store i1 true, ptr %retval, align 1
  store i32 1, ptr %cleanup.dest.slot, align 4
  br label %cleanup

cleanup:                                          ; preds = %for.end, %if.then15
  call void @_ZN6google8protobuf19FileDescriptorProtoD1Ev(ptr noundef nonnull align 8 dereferenceable(224) %temp) #3
  br label %return

if.end16:                                         ; preds = %for.body
  br label %for.inc17

for.inc17:                                        ; preds = %if.end16
  %17 = load i64, ptr %i, align 8
  %inc18 = add i64 %17, 1
  store i64 %inc18, ptr %i, align 8
  br label %for.cond, !llvm.loop !14

for.end19:                                        ; preds = %for.cond
  store i1 false, ptr %retval, align 1
  br label %return

return:                                           ; preds = %for.end19, %cleanup
  %18 = load i1, ptr %retval, align 1
  ret i1 %18

eh.resume:                                        ; preds = %lpad
  %exn = load ptr, ptr %exn.slot, align 8
  %sel = load i32, ptr %ehselector.slot, align 4
  %lpad.val = insertvalue { ptr, i32 } poison, ptr %exn, 0
  %lpad.val20 = insertvalue { ptr, i32 } %lpad.val, i32 %sel, 1
  resume { ptr, i32 } %lpad.val20
}